; Function Attrs: nounwind sspstrong uwtable
define internal range(i32 -2147483648, 1) i32 @vmdk_co_pwritev(ptr noundef %bs, i64 noundef %offset, i64 noundef %bytes, ptr noundef %qiov, i32 %flags) #0 {
entry:
  %opaque = getelementptr inbounds nuw i8, ptr %bs, i64 24
  %0 = load ptr, ptr %opaque, align 8
  tail call void @qemu_co_mutex_lock(ptr noundef %0) #15
  %call = tail call i32 @vmdk_pwritev(ptr noundef %bs, i64 noundef %offset, i64 noundef %bytes, ptr noundef %qiov, i1 noundef zeroext false, i1 noundef zeroext false)
  tail call void @qemu_co_mutex_unlock(ptr noundef %0) #15
  ret i32 %call
}